Certificate:
    Data:
        Version: 3 (0x2)
        Serial Number: 2 (0x2)
        Signature Algorithm: sha256WithRSAEncryption
        Issuer: C=US, ST=North Carolina, L=Raleigh, O=Example, Inc., CN=example.com Certificate Authority
        Validity
            Not Before: Apr  2 17:23:29 2021 GMT
            Not After : Sep 29 17:23:29 2021 GMT
        Subject: C=US, ST=North Carolina, L=Raleigh, O=Example, Inc., CN=servera.lab.example.com
        Subject Public Key Info:
            Public Key Algorithm: rsaEncryption
                RSA Public-Key: (2048 bit)
                Modulus:
                    00:a0:fb:3a:b7:fe:6f:a7:4c:a7:6e:6a:77:38:49:
                    b0:1b:71:21:0b:d8:cd:69:60:e1:48:d8:f0:dc:6f:
                    68:7d:c8:ef:c3:2a:70:48:5a:91:7d:f1:fc:07:31:
                    21:6b:08:36:b4:78:e8:fd:01:d9:f4:67:94:4f:ce:
                    bf:8c:9e:17:59:fa:80:c7:57:b0:a0:5f:ac:0b:0e:
                    1a:1b:27:ca:25:26:43:19:79:24:55:0e:bf:87:e2:
                    2a:d8:29:e6:74:81:1f:42:2b:6d:c8:1c:41:3a:31:
                    94:0c:ff:32:43:12:d9:9e:04:2d:eb:09:fa:2b:8d:
                    ff:ad:b3:50:f6:9c:75:47:9d:a6:69:a4:43:3c:cf:
                    ab:43:2d:92:0d:7a:77:ed:19:ae:fa:e1:8a:db:4b:
                    f5:af:d1:c9:42:4b:33:47:bc:cf:2d:04:ff:dd:91:
                    2b:61:e7:6d:d7:2d:a3:f1:42:55:be:80:d5:23:85:
                    6d:86:04:25:d4:76:bd:dc:85:d2:c2:94:a9:4e:0c:
                    ce:f7:b7:1c:fe:8c:41:50:28:09:99:ee:bd:c3:76:
                    1c:f2:e1:4e:96:8c:77:7a:5a:0d:ca:ce:61:d1:46:
                    02:aa:e7:52:c0:04:9f:7e:7f:5b:47:7b:d5:14:e9:
                    72:aa:b6:35:12:d9:8c:38:8b:75:62:64:f7:62:68:
                    79:03
                Exponent: 65537 (0x10001)
        X509v3 extensions:
            X509v3 Basic Constraints: 
                CA:FALSE
            Netscape Comment: 
                OpenSSL Generated Certificate
            X509v3 Subject Key Identifier: 
                77:A4:74:47:0A:29:F5:63:6D:8E:4A:2E:8A:A1:7F:FB:B0:B9:4A:A3
            X509v3 Authority Key Identifier: 
                keyid:46:79:81:CA:D5:F6:E2:2C:58:F7:22:42:26:27:7E:5C:94:42:D7:8E

    Signature Algorithm: sha256WithRSAEncryption
         bd:60:5a:c9:91:d0:3a:e6:de:ff:9b:85:27:23:fc:5b:f2:8f:
         7c:dd:60:2c:b5:83:cf:6e:17:80:d1:d2:87:8c:70:ab:b3:f0:
         20:ac:58:0e:67:64:56:c1:8b:fd:77:1b:36:42:c4:7b:23:2a:
         90:3c:87:f0:26:27:6c:30:b7:c7:bb:e8:6e:29:60:15:6d:0a:
         5c:d9:14:a9:5e:4b:97:54:e8:35:74:56:09:b9:f6:66:2c:58:
         58:ec:35:de:50:1b:0c:b0:ce:5b:21:5b:c0:33:f5:41:cb:67:
         96:31:8a:d3:3c:14:cf:a0:29:da:39:75:f6:17:75:d8:50:41:
         19:a4:79:0c:9c:8a:cc:9a:11:f1:0e:e3:b3:b4:2a:fd:34:3c:
         77:ce:34:90:9f:ba:1b:44:8b:5e:b8:12:ba:37:4f:5d:8b:00:
         e7:85:5c:d7:bd:10:0d:30:d6:94:66:ba:4f:78:48:df:3c:5e:
         b9:c7:98:fe:73:47:7a:c2:73:c5:5c:3f:f4:df:0c:19:a8:d9:
         3c:1d:46:69:6e:cd:ee:2c:4a:60:ae:5c:94:dc:a9:a3:c1:a8:
         5c:e2:fe:02:e6:0f:fe:bd:d9:26:fa:61:f1:6d:1c:3b:77:34:
         14:c6:c8:69:9f:f5:5a:d2:cd:46:8a:d4:79:53:c3:d9:a5:cd:
         78:90:e6:4a
-----BEGIN CERTIFICATE-----
MIID5DCCAsygAwIBAgIBAjANBgkqhkiG9w0BAQsFADB8MQswCQYDVQQGEwJVUzEX
MBUGA1UECAwOTm9ydGggQ2Fyb2xpbmExEDAOBgNVBAcMB1JhbGVpZ2gxFjAUBgNV
BAoMDUV4YW1wbGUsIEluYy4xKjAoBgNVBAMMIWV4YW1wbGUuY29tIENlcnRpZmlj
YXRlIEF1dGhvcml0eTAeFw0yMTA0MDIxNzIzMjlaFw0yMTA5MjkxNzIzMjlaMHIx
CzAJBgNVBAYTAlVTMRcwFQYDVQQIDA5Ob3J0aCBDYXJvbGluYTEQMA4GA1UEBwwH
UmFsZWlnaDEWMBQGA1UECgwNRXhhbXBsZSwgSW5jLjEgMB4GA1UEAwwXc2VydmVy
YS5sYWIuZXhhbXBsZS5jb20wggEiMA0GCSqGSIb3DQEBAQUAA4IBDwAwggEKAoIB
AQCg+zq3/m+nTKduanc4SbAbcSEL2M1pYOFI2PDcb2h9yO/DKnBIWpF98fwHMSFr
CDa0eOj9Adn0Z5RPzr+MnhdZ+oDHV7CgX6wLDhobJ8olJkMZeSRVDr+H4irYKeZ0
gR9CK23IHEE6MZQM/zJDEtmeBC3rCforjf+ts1D2nHVHnaZppEM8z6tDLZINenft
Ga764YrbS/Wv0clCSzNHvM8tBP/dkSth523XLaPxQlW+gNUjhW2GBCXUdr3chdLC
lKlODM73txz+jEFQKAmZ7r3Ddhzy4U6WjHd6Wg3KzmHRRgKq51LABJ9+f1tHe9UU
6XKqtjUS2Yw4i3ViZPdiaHkDAgMBAAGjezB5MAkGA1UdEwQCMAAwLAYJYIZIAYb4
QgENBB8WHU9wZW5TU0wgR2VuZXJhdGVkIENlcnRpZmljYXRlMB0GA1UdDgQWBBR3
pHRHCin1Y22OSi6KoX/7sLlKozAfBgNVHSMEGDAWgBRGeYHK1fbiLFj3IkImJ35c
lELXjjANBgkqhkiG9w0BAQsFAAOCAQEAvWBayZHQOube/5uFJyP8W/KPfN1gLLWD
z24XgNHSh4xwq7PwIKxYDmdkVsGL/XcbNkLEeyMqkDyH8CYnbDC3x7vobilgFW0K
XNkUqV5Ll1ToNXRWCbn2ZixYWOw13lAbDLDOWyFbwDP1QctnljGK0zwUz6Ap2jl1
9hd12FBBGaR5DJyKzJoR8Q7js7Qq/TQ8d840kJ+6G0SLXrgSujdPXYsA54Vc170Q
DTDWlGa6T3hI3zxeuceY/nNHesJzxVw/9N8MGajZPB1GaW7N7ixKYK5clNypo8Go
XOL+AuYP/r3ZJvph8W0cO3c0FMbIaZ/1WtLNRorUeVPD2aXNeJDmSg==
-----END CERTIFICATE-----
